; Function Attrs: inlinehint mustprogress nounwind uwtable
define internal fastcc void @"_ZZN9grpc_core20FaultInjectionFilter4Call23OnClientInitialMetadataER19grpc_metadata_batchPS0_EN3$_0D2Ev"(ptr noundef nonnull align 8 captures(none) dereferenceable(40) %0) unnamed_addr #10 align 2 personality ptr @__gxx_personality_v0 {
  %2 = getelementptr inbounds nuw i8, ptr %0, i64 32
  %.val.i = load i8, ptr %2, align 8, !tbaa !76, !range !63, !noundef !64
  %3 = trunc nuw i8 %.val.i to i1
  br i1 %3, label %4, label %_ZN9grpc_core12_GLOBAL__N_111FaultHandleD2Ev.exit.i

4:                                                ; preds = %1
  %5 = atomicrmw sub ptr @_ZN9grpc_core12_GLOBAL__N_115g_active_faultsE, i32 1 monotonic, align 4
  br label %_ZN9grpc_core12_GLOBAL__N_111FaultHandleD2Ev.exit.i

_ZN9grpc_core12_GLOBAL__N_111FaultHandleD2Ev.exit.i: ; preds = %4, %1
  %6 = getelementptr inbounds nuw i8, ptr %0, i64 24
  %7 = load i8, ptr %6, align 8, !tbaa !68, !range !63, !noundef !64
  %8 = trunc nuw i8 %7 to i1
  br i1 %8, label %9, label %_ZN9grpc_core20FaultInjectionFilter17InjectionDecisionD2Ev.exit

9:                                                ; preds = %_ZN9grpc_core12_GLOBAL__N_111FaultHandleD2Ev.exit.i
  %10 = getelementptr inbounds nuw i8, ptr %0, i64 16
  store i8 0, ptr %6, align 8, !tbaa !68
  %11 = load i64, ptr %10, align 8, !tbaa !11
  %12 = and i64 %11, 1
  %.not.i.i.i.i.i.i.i = icmp eq i64 %12, 0
  br i1 %.not.i.i.i.i.i.i.i, label %13, label %_ZN9grpc_core20FaultInjectionFilter17InjectionDecisionD2Ev.exit

13:                                               ; preds = %9
  %14 = inttoptr i64 %11 to ptr
  invoke void @_ZNK4absl12lts_2024072215status_internal9StatusRep5UnrefEv(ptr noundef nonnull align 8 dereferenceable(48) %14)
          to label %_ZN9grpc_core20FaultInjectionFilter17InjectionDecisionD2Ev.exit unwind label %15

15:                                               ; preds = %13
  %16 = landingpad { ptr, i32 }
          catch ptr null
  %17 = extractvalue { ptr, i32 } %16, 0
  tail call void @__clang_call_terminate(ptr %17) #39
  unreachable

_ZN9grpc_core20FaultInjectionFilter17InjectionDecisionD2Ev.exit: ; preds = %_ZN9grpc_core12_GLOBAL__N_111FaultHandleD2Ev.exit.i, %9, %13
  ret void
}